target datalayout = "e-m:e-p270:32:32-p271:32:32-p272:64:64-i64:64-i128:128-f80:128-n8:16:32:64-S128"
target triple = "x86_64-pc-linux-gnu"

@.str.3 = private unnamed_addr constant [2 x i8] c"\0A\00", align 1
@.str.4 = private unnamed_addr constant [35 x i8] c"    dft_tag [options] [selection]\0A\00", align 1
@.str.5 = private unnamed_addr constant [19 x i8] c"This pass... TODO\0A\00", align 1
@.str.6 = private unnamed_addr constant [21 x i8] c"    -overwrite-only\0A\00", align 1
@.str.7 = private unnamed_addr constant [62 x i8] c"        Only process $overwrite_tag and $original_tag cells.\0A\00", align 1
@.str.8 = private unnamed_addr constant [17 x i8] c"    -tag-public\0A\00", align 1
@.str.9 = private unnamed_addr constant [78 x i8] c"        For each public wire that may carry tagged data, create a new public\0A\00", align 1
@.str.10 = private unnamed_addr constant [75 x i8] c"        wire (named <wirename>:<tagname>) that carries the tag bits. Note\0A\00", align 1
@.str.11 = private unnamed_addr constant [75 x i8] c"        that without this, tagging logic will only be emitted as required\0A\00", align 1
@.str.12 = private unnamed_addr constant [31 x i8] c"        for uses of $get_tag.\0A\00", align 1

; Function Attrs: mustprogress uwtable
define internal void @_ZN12_GLOBAL__N_110DftTagPass4helpEv(ptr noundef nonnull align 8 dereferenceable(104) %0) unnamed_addr #4 align 2 {
  %2 = alloca ptr, align 8
  store ptr %0, ptr %2, align 8
  call void (ptr, ...) @_ZN5Yosys3logEPKcz(ptr noundef @.str.3)
  call void (ptr, ...) @_ZN5Yosys3logEPKcz(ptr noundef @.str.4)
  call void (ptr, ...) @_ZN5Yosys3logEPKcz(ptr noundef @.str.3)
  call void (ptr, ...) @_ZN5Yosys3logEPKcz(ptr noundef @.str.5)
  call void (ptr, ...) @_ZN5Yosys3logEPKcz(ptr noundef @.str.3)
  call void (ptr, ...) @_ZN5Yosys3logEPKcz(ptr noundef @.str.6)
  call void (ptr, ...) @_ZN5Yosys3logEPKcz(ptr noundef @.str.7)
  call void (ptr, ...) @_ZN5Yosys3logEPKcz(ptr noundef @.str.8)
  call void (ptr, ...) @_ZN5Yosys3logEPKcz(ptr noundef @.str.9)
  call void (ptr, ...) @_ZN5Yosys3logEPKcz(ptr noundef @.str.10)
  call void (ptr, ...) @_ZN5Yosys3logEPKcz(ptr noundef @.str.11)
  call void (ptr, ...) @_ZN5Yosys3logEPKcz(ptr noundef @.str.12)
  call void (ptr, ...) @_ZN5Yosys3logEPKcz(ptr noundef @.str.3)
  ret void
}